; ModuleID = '22/335.c'
source_filename = "22/335.c"
target datalayout = "e-m:e-p270:32:32-p271:32:32-p272:64:64-i64:64-f80:128-n8:16:32:64-S128"
target triple = "x86_64-pc-linux-gnu"

@.str = private unnamed_addr constant [5 x i8] c"%d%c\00", align 1
@.str.1 = private unnamed_addr constant [3 x i8] c"%d\00", align 1
@.str.2 = private unnamed_addr constant [3 x i8] c"No\00", align 1

; Function Attrs: noinline nounwind uwtable
define dso_local void @main() #0 {
  %1 = alloca [400 x i8], align 16
  %2 = alloca [400 x i32], align 16
  %3 = alloca i32, align 4
  %4 = alloca i32, align 4
  %5 = alloca i32, align 4
  %6 = alloca i32, align 4
  %7 = alloca i32, align 4
  store i32 1, i32* %5, align 4
  br label %8

8:                                                ; preds = %24, %0
  %9 = load i32, i32* %5, align 4
  %10 = sext i32 %9 to i64
  %11 = getelementptr inbounds [400 x i32], [400 x i32]* %2, i64 0, i64 %10
  %12 = load i32, i32* %5, align 4
  %13 = sext i32 %12 to i64
  %14 = getelementptr inbounds [400 x i8], [400 x i8]* %1, i64 0, i64 %13
  %15 = call i32 (i8*, ...) @__isoc99_scanf(i8* getelementptr inbounds ([5 x i8], [5 x i8]* @.str, i64 0, i64 0), i32* %11, i8* %14)
  %16 = load i32, i32* %5, align 4
  %17 = sext i32 %16 to i64
  %18 = getelementptr inbounds [400 x i8], [400 x i8]* %1, i64 0, i64 %17
  %19 = load i8, i8* %18, align 1
  %20 = sext i8 %19 to i32
  %21 = icmp ne i32 %20, 44
  br i1 %21, label %22, label %23

22:                                               ; preds = %8
  br label %27

23:                                               ; preds = %8
  br label %24

24:                                               ; preds = %23
  %25 = load i32, i32* %5, align 4
  %26 = add nsw i32 %25, 1
  store i32 %26, i32* %5, align 4
  br label %8

27:                                               ; preds = %22
  store i32 1, i32* %6, align 4
  br label %28

28:                                               ; preds = %73, %27
  %29 = load i32, i32* %6, align 4
  %30 = load i32, i32* %5, align 4
  %31 = icmp sle i32 %29, %30
  br i1 %31, label %32, label %76

32:                                               ; preds = %28
  store i32 1, i32* %7, align 4
  br label %33

33:                                               ; preds = %69, %32
  %34 = load i32, i32* %7, align 4
  %35 = load i32, i32* %5, align 4
  %36 = load i32, i32* %6, align 4
  %37 = sub nsw i32 %35, %36
  %38 = icmp sle i32 %34, %37
  br i1 %38, label %39, label %72

39:                                               ; preds = %33
  %40 = load i32, i32* %7, align 4
  %41 = sext i32 %40 to i64
  %42 = getelementptr inbounds [400 x i32], [400 x i32]* %2, i64 0, i64 %41
  %43 = load i32, i32* %42, align 4
  %44 = load i32, i32* %7, align 4
  %45 = add nsw i32 %44, 1
  %46 = sext i32 %45 to i64
  %47 = getelementptr inbounds [400 x i32], [400 x i32]* %2, i64 0, i64 %46
  %48 = load i32, i32* %47, align 4
  %49 = icmp sle i32 %43, %48
  br i1 %49, label %50, label %68

50:                                               ; preds = %39
  %51 = load i32, i32* %7, align 4
  %52 = sext i32 %51 to i64
  %53 = getelementptr inbounds [400 x i32], [400 x i32]* %2, i64 0, i64 %52
  %54 = load i32, i32* %53, align 4
  store i32 %54, i32* %4, align 4
  %55 = load i32, i32* %7, align 4
  %56 = add nsw i32 %55, 1
  %57 = sext i32 %56 to i64
  %58 = getelementptr inbounds [400 x i32], [400 x i32]* %2, i64 0, i64 %57
  %59 = load i32, i32* %58, align 4
  %60 = load i32, i32* %7, align 4
  %61 = sext i32 %60 to i64
  %62 = getelementptr inbounds [400 x i32], [400 x i32]* %2, i64 0, i64 %61
  store i32 %59, i32* %62, align 4
  %63 = load i32, i32* %4, align 4
  %64 = load i32, i32* %7, align 4
  %65 = add nsw i32 %64, 1
  %66 = sext i32 %65 to i64
  %67 = getelementptr inbounds [400 x i32], [400 x i32]* %2, i64 0, i64 %66
  store i32 %63, i32* %67, align 4
  br label %68

68:                                               ; preds = %50, %39
  br label %69

69:                                               ; preds = %68
  %70 = load i32, i32* %7, align 4
  %71 = add nsw i32 %70, 1
  store i32 %71, i32* %7, align 4
  br label %33

72:                                               ; preds = %33
  br label %73

73:                                               ; preds = %72
  %74 = load i32, i32* %6, align 4
  %75 = add nsw i32 %74, 1
  store i32 %75, i32* %6, align 4
  br label %28

76:                                               ; preds = %28
  store i32 2, i32* %6, align 4
  br label %77

77:                                               ; preds = %96, %76
  %78 = load i32, i32* %6, align 4
  %79 = load i32, i32* %5, align 4
  %80 = icmp sle i32 %78, %79
  br i1 %80, label %81, label %99

81:                                               ; preds = %77
  %82 = load i32, i32* %6, align 4
  %83 = sext i32 %82 to i64
  %84 = getelementptr inbounds [400 x i32], [400 x i32]* %2, i64 0, i64 %83
  %85 = load i32, i32* %84, align 4
  %86 = getelementptr inbounds [400 x i32], [400 x i32]* %2, i64 0, i64 1
  %87 = load i32, i32* %86, align 4
  %88 = icmp slt i32 %85, %87
  br i1 %88, label %89, label %95

89:                                               ; preds = %81
  %90 = load i32, i32* %6, align 4
  %91 = sext i32 %90 to i64
  %92 = getelementptr inbounds [400 x i32], [400 x i32]* %2, i64 0, i64 %91
  %93 = load i32, i32* %92, align 4
  %94 = call i32 (i8*, ...) @printf(i8* getelementptr inbounds ([3 x i8], [3 x i8]* @.str.1, i64 0, i64 0), i32 %93)
  br label %99

95:                                               ; preds = %81
  br label %96

96:                                               ; preds = %95
  %97 = load i32, i32* %6, align 4
  %98 = add nsw i32 %97, 1
  store i32 %98, i32* %6, align 4
  br label %77

99:                                               ; preds = %89, %77
  %100 = load i32, i32* %6, align 4
  %101 = load i32, i32* %5, align 4
  %102 = add nsw i32 %101, 1
  %103 = icmp eq i32 %100, %102
  br i1 %103, label %104, label %106

104:                                              ; preds = %99
  %105 = call i32 (i8*, ...) @printf(i8* getelementptr inbounds ([3 x i8], [3 x i8]* @.str.2, i64 0, i64 0))
  br label %106

106:                                              ; preds = %104, %99
  ret void
}

declare dso_local i32 @__isoc99_scanf(i8*, ...) #1

declare dso_local i32 @printf(i8*, ...) #1


!llvm.module.flags = !{!0}
!llvm.ident = !{!1}

!0 = !{i32 1, !"wchar_size", i32 4}
!1 = !{!"clang version 10.0.0-4ubuntu1 "}
